; Function Attrs: mustprogress uwtable
define ptr @proj_trans_get_last_used_operation(ptr noundef %0) local_unnamed_addr #1 {
  %2 = icmp eq ptr %0, null
  br i1 %2, label %21, label %3

3:                                                ; preds = %1
  %4 = getelementptr inbounds i8, ptr %0, i64 840
  %5 = load i32, ptr %4, align 8
  %6 = icmp slt i32 %5, 0
  br i1 %6, label %21, label %7

7:                                                ; preds = %3
  %8 = getelementptr inbounds i8, ptr %0, i64 816
  %9 = load ptr, ptr %8, align 8
  %10 = getelementptr inbounds i8, ptr %0, i64 824
  %11 = load ptr, ptr %10, align 8
  %12 = icmp eq ptr %9, %11
  %13 = load ptr, ptr %0, align 8
  br i1 %12, label %14, label %16

14:                                               ; preds = %7
  %15 = tail call ptr @proj_clone(ptr noundef %13, ptr noundef nonnull %0)
  br label %21

16:                                               ; preds = %7
  %17 = zext nneg i32 %5 to i64
  %18 = getelementptr inbounds %struct.PJCoordOperation, ptr %9, i64 %17, i32 10
  %19 = load ptr, ptr %18, align 8
  %20 = tail call ptr @proj_clone(ptr noundef %13, ptr noundef %19)
  br label %21

21:                                               ; preds = %1, %3, %16, %14
  %.0 = phi ptr [ %15, %14 ], [ %20, %16 ], [ null, %3 ], [ null, %1 ]
  ret ptr %.0
}